target datalayout = "e-m:e-p270:32:32-p271:32:32-p272:64:64-i64:64-i128:128-f80:128-n8:16:32:64-S128"
target triple = "x86_64-pc-linux-gnu"

%struct._address = type { i32, i32, ptr, ptr }
%struct._packet_info = type { ptr, ptr, i32, i32, %struct.nstime_t, %struct.nstime_t, %struct.nstime_t, i8, ptr, ptr, ptr, ptr, %struct._address, %struct._address, %struct._address, %struct._address, %struct._address, %struct._address, i32, ptr, i8, [3 x i8], %struct.anon, i32, i32, i32, i32, ptr, i8, ptr, ptr, i16, i16, i32, i32, i16, i32, i32, ptr, ptr, ptr, i8, i8, i16, i16, i16, i32, i16, i16, ptr, ptr, ptr, ptr, ptr, i32, i32 }
%struct.nstime_t = type { i64, i32 }
%struct.anon = type { i8, [3 x i8] }
%struct._frame_data = type <{ i32, i32, i32, i32, i32, [4 x i8], i64, ptr, ptr, ptr, i8, i16, [5 x i8], %struct.nstime_t, %struct.nstime_t, i32, i32 }>
%struct.conversation = type { ptr, ptr, ptr, i32, i32, i32, ptr, ptr, i32, ptr }
%struct._sprt_conversation_info = type { [13 x i8], i8, i32, [4 x i32], i32, i32 }

@sprt_handle = internal global ptr null, align 8
@proto_sprt = internal global i32 0, align 4

; Function Attrs: inlinehint nounwind null_pointer_is_valid sspstrong uwtable
define internal void @clear_address(ptr noundef %0) #2 {
  %2 = alloca ptr, align 8
  store ptr %0, ptr %2, align 8
  %3 = load ptr, ptr %2, align 8
  %4 = getelementptr inbounds nuw %struct._address, ptr %3, i32 0, i32 0
  store i32 0, ptr %4, align 8
  %5 = load ptr, ptr %2, align 8
  %6 = getelementptr inbounds nuw %struct._address, ptr %5, i32 0, i32 1
  store i32 0, ptr %6, align 4
  %7 = load ptr, ptr %2, align 8
  %8 = getelementptr inbounds nuw %struct._address, ptr %7, i32 0, i32 2
  store ptr null, ptr %8, align 8
  %9 = load ptr, ptr %2, align 8
  %10 = getelementptr inbounds nuw %struct._address, ptr %9, i32 0, i32 3
  store ptr null, ptr %10, align 8
  ret void
}

; Function Attrs: null_pointer_is_valid sspstrong uwtable
define hidden void @sprt_add_address(ptr noundef %0, ptr noundef %1, i32 noundef %2, i32 noundef %3, ptr noundef %4, i32 noundef %5) #0 {
  %7 = alloca ptr, align 8
  %8 = alloca ptr, align 8
  %9 = alloca i32, align 4
  %10 = alloca i32, align 4
  %11 = alloca ptr, align 8
  %12 = alloca i32, align 4
  %13 = alloca %struct._address, align 8
  %14 = alloca ptr, align 8
  %15 = alloca ptr, align 8
  %16 = alloca i32, align 4
  store ptr %0, ptr %7, align 8
  store ptr %1, ptr %8, align 8
  store i32 %2, ptr %9, align 4
  store i32 %3, ptr %10, align 4
  store ptr %4, ptr %11, align 8
  store i32 %5, ptr %12, align 4
  call void @llvm.lifetime.start.p0(i64 24, ptr %13) #5
  call void @llvm.lifetime.start.p0(i64 8, ptr %14) #5
  call void @llvm.lifetime.start.p0(i64 8, ptr %15) #5
  store ptr null, ptr %15, align 8
  %17 = load ptr, ptr %7, align 8
  %18 = getelementptr inbounds nuw %struct._packet_info, ptr %17, i32 0, i32 8
  %19 = load ptr, ptr %18, align 8
  %20 = getelementptr inbounds nuw %struct._frame_data, ptr %19, i32 0, i32 11
  %21 = load i16, ptr %20, align 1
  %22 = lshr i16 %21, 3
  %23 = and i16 %22, 1
  %24 = zext i16 %23 to i32
  %25 = icmp ne i32 %24, 0
  br i1 %25, label %26, label %27

26:                                               ; preds = %6
  store i32 1, ptr %16, align 4
  br label %98

27:                                               ; preds = %6
  call void @clear_address(ptr noundef %13)
  %28 = load i32, ptr %12, align 4
  %29 = load ptr, ptr %8, align 8
  %30 = load i32, ptr %9, align 4
  %31 = load i32, ptr %10, align 4
  %32 = load i32, ptr %10, align 4
  %33 = icmp ne i32 %32, 0
  %34 = xor i1 %33, true
  %35 = select i1 %34, i32 131072, i32 0
  %36 = or i32 65536, %35
  %37 = call ptr @find_conversation(i32 noundef %28, ptr noundef %29, ptr noundef %13, i32 noundef 3, i32 noundef %30, i32 noundef %31, i32 noundef %36)
  store ptr %37, ptr %14, align 8
  %38 = load ptr, ptr %14, align 8
  %39 = icmp ne ptr %38, null
  br i1 %39, label %40, label %46

40:                                               ; preds = %27
  %41 = load ptr, ptr %14, align 8
  %42 = getelementptr inbounds nuw %struct.conversation, ptr %41, i32 0, i32 4
  %43 = load i32, ptr %42, align 4
  %44 = load i32, ptr %12, align 4
  %45 = icmp ne i32 %43, %44
  br i1 %45, label %46, label %57

46:                                               ; preds = %40, %27
  %47 = load i32, ptr %12, align 4
  %48 = load ptr, ptr %8, align 8
  %49 = load i32, ptr %9, align 4
  %50 = load i32, ptr %10, align 4
  %51 = load i32, ptr %10, align 4
  %52 = icmp ne i32 %51, 0
  %53 = xor i1 %52, true
  %54 = select i1 %53, i32 2, i32 0
  %55 = or i32 1, %54
  %56 = call ptr @conversation_new(i32 noundef %47, ptr noundef %48, ptr noundef %13, i32 noundef 3, i32 noundef %49, i32 noundef %50, i32 noundef %55)
  store ptr %56, ptr %14, align 8
  br label %57

57:                                               ; preds = %46, %40
  %58 = load ptr, ptr %14, align 8
  %59 = load ptr, ptr @sprt_handle, align 8
  call void @conversation_set_dissector(ptr noundef %58, ptr noundef %59)
  %60 = load ptr, ptr %14, align 8
  %61 = load i32, ptr @proto_sprt, align 4
  %62 = call ptr @conversation_get_proto_data(ptr noundef %60, i32 noundef %61)
  store ptr %62, ptr %15, align 8
  %63 = load ptr, ptr %15, align 8
  %64 = icmp ne ptr %63, null
  br i1 %64, label %89, label %65

65:                                               ; preds = %57
  %66 = call ptr @wmem_file_scope()
  %67 = call noalias ptr @wmem_alloc(ptr noundef %66, i64 noundef 44) #6
  store ptr %67, ptr %15, align 8
  %68 = load ptr, ptr %15, align 8
  %69 = getelementptr inbounds nuw %struct._sprt_conversation_info, ptr %68, i32 0, i32 1
  store i8 0, ptr %69, align 1
  %70 = load ptr, ptr %15, align 8
  %71 = getelementptr inbounds nuw %struct._sprt_conversation_info, ptr %70, i32 0, i32 3
  %72 = getelementptr [4 x i32], ptr %71, i64 0, i64 0
  store i32 0, ptr %72, align 4
  %73 = load ptr, ptr %15, align 8
  %74 = getelementptr inbounds nuw %struct._sprt_conversation_info, ptr %73, i32 0, i32 3
  %75 = getelementptr [4 x i32], ptr %74, i64 0, i64 1
  store i32 0, ptr %75, align 4
  %76 = load ptr, ptr %15, align 8
  %77 = getelementptr inbounds nuw %struct._sprt_conversation_info, ptr %76, i32 0, i32 3
  %78 = getelementptr [4 x i32], ptr %77, i64 0, i64 2
  store i32 0, ptr %78, align 4
  %79 = load ptr, ptr %15, align 8
  %80 = getelementptr inbounds nuw %struct._sprt_conversation_info, ptr %79, i32 0, i32 3
  %81 = getelementptr [4 x i32], ptr %80, i64 0, i64 3
  store i32 0, ptr %81, align 4
  %82 = load ptr, ptr %15, align 8
  %83 = getelementptr inbounds nuw %struct._sprt_conversation_info, ptr %82, i32 0, i32 4
  store i32 0, ptr %83, align 4
  %84 = load ptr, ptr %15, align 8
  %85 = getelementptr inbounds nuw %struct._sprt_conversation_info, ptr %84, i32 0, i32 5
  store i32 0, ptr %85, align 4
  %86 = load ptr, ptr %14, align 8
  %87 = load i32, ptr @proto_sprt, align 4
  %88 = load ptr, ptr %15, align 8
  call void @conversation_add_proto_data(ptr noundef %86, i32 noundef %87, ptr noundef %88)
  br label %89

89:                                               ; preds = %65, %57
  %90 = load ptr, ptr %15, align 8
  %91 = getelementptr inbounds nuw %struct._sprt_conversation_info, ptr %90, i32 0, i32 0
  %92 = getelementptr inbounds [13 x i8], ptr %91, i64 0, i64 0
  %93 = load ptr, ptr %11, align 8
  %94 = call i64 @g_strlcpy(ptr noundef %92, ptr noundef %93, i64 noundef 12)
  %95 = load i32, ptr %12, align 4
  %96 = load ptr, ptr %15, align 8
  %97 = getelementptr inbounds nuw %struct._sprt_conversation_info, ptr %96, i32 0, i32 2
  store i32 %95, ptr %97, align 4
  store i32 0, ptr %16, align 4
  br label %98

98:                                               ; preds = %89, %26
  call void @llvm.lifetime.end.p0(i64 8, ptr %15) #5
  call void @llvm.lifetime.end.p0(i64 8, ptr %14) #5
  call void @llvm.lifetime.end.p0(i64 24, ptr %13) #5
  %99 = load i32, ptr %16, align 4
  switch i32 %99, label %101 [
    i32 0, label %100
    i32 1, label %100
  ]

100:                                              ; preds = %98, %98
  ret void

101:                                              ; preds = %98
  unreachable
}