; Function Attrs: null_pointer_is_valid sspstrong uwtable
define hidden void @sprt_add_address(ptr noundef readonly captures(none) %0, ptr noundef %1, i32 noundef %2, i32 noundef %3, ptr noundef %4, i32 noundef %5) local_unnamed_addr #0 {
  %7 = alloca %struct._address, align 8
  call void @llvm.lifetime.start.p0(i64 24, ptr nonnull %7) #5
  %8 = getelementptr inbounds nuw i8, ptr %0, i64 80
  %9 = load ptr, ptr %8, align 8
  %10 = getelementptr inbounds nuw i8, ptr %9, i64 57
  %11 = load i16, ptr %10, align 1
  %12 = and i16 %11, 8
  %.not = icmp eq i16 %12, 0
  br i1 %.not, label %13, label %35

13:                                               ; preds = %6
  call void @llvm.memset.p0.i64(ptr noundef nonnull align 8 dereferenceable(24) %7, i8 0, i64 24, i1 false)
  %.not32 = icmp eq i32 %3, 0
  %14 = select i1 %.not32, i32 196608, i32 65536
  %15 = call ptr @find_conversation(i32 noundef %5, ptr noundef %1, ptr noundef nonnull %7, i32 noundef 3, i32 noundef %2, i32 noundef %3, i32 noundef %14)
  %.not33 = icmp eq ptr %15, null
  br i1 %.not33, label %19, label %16

16:                                               ; preds = %13
  %17 = getelementptr inbounds nuw i8, ptr %15, i64 28
  %18 = load i32, ptr %17, align 4
  %.not34 = icmp eq i32 %18, %5
  br i1 %.not34, label %22, label %19

19:                                               ; preds = %16, %13
  %20 = select i1 %.not32, i32 3, i32 1
  %21 = call ptr @conversation_new(i32 noundef %5, ptr noundef %1, ptr noundef nonnull %7, i32 noundef 3, i32 noundef %2, i32 noundef %3, i32 noundef %20)
  br label %22

22:                                               ; preds = %19, %16
  %.029 = phi ptr [ %21, %19 ], [ %15, %16 ]
  %23 = load ptr, ptr @sprt_handle, align 8
  call void @conversation_set_dissector(ptr noundef %.029, ptr noundef %23)
  %24 = load i32, ptr @proto_sprt, align 4
  %25 = call ptr @conversation_get_proto_data(ptr noundef %.029, i32 noundef %24)
  %.not35 = icmp eq ptr %25, null
  br i1 %.not35, label %26, label %32

26:                                               ; preds = %22
  %27 = call ptr @wmem_file_scope()
  %28 = call noalias dereferenceable_or_null(44) ptr @wmem_alloc(ptr noundef %27, i64 noundef 44) #6
  %29 = getelementptr inbounds nuw i8, ptr %28, i64 13
  store i8 0, ptr %29, align 1
  %30 = getelementptr inbounds nuw i8, ptr %28, i64 20
  call void @llvm.memset.p0.i64(ptr noundef nonnull align 4 dereferenceable(24) %30, i8 0, i64 24, i1 false)
  %31 = load i32, ptr @proto_sprt, align 4
  call void @conversation_add_proto_data(ptr noundef %.029, i32 noundef %31, ptr noundef %28)
  br label %32

32:                                               ; preds = %26, %22
  %.0 = phi ptr [ %25, %22 ], [ %28, %26 ]
  %33 = call i64 @g_strlcpy(ptr noundef %.0, ptr noundef %4, i64 noundef 12)
  %34 = getelementptr inbounds nuw i8, ptr %.0, i64 16
  store i32 %5, ptr %34, align 4
  br label %35

35:                                               ; preds = %6, %32
  call void @llvm.lifetime.end.p0(i64 24, ptr nonnull %7) #5
  ret void
}